; Function Attrs: nofree norecurse nosync nounwind memory(read, inaccessiblemem: none) uwtable
define noundef ptr @Hop_ObjRepr(ptr noundef readonly %0) local_unnamed_addr #2 {
  br label %tailrecurse

tailrecurse:                                      ; preds = %tailrecurse, %1
  %.tr = phi ptr [ %0, %1 ], [ %2, %tailrecurse ]
  %2 = load ptr, ptr %.tr, align 8
  %3 = icmp eq ptr %2, null
  %4 = icmp eq ptr %2, %.tr
  %or.cond = or i1 %3, %4
  br i1 %or.cond, label %5, label %tailrecurse

5:                                                ; preds = %tailrecurse
  ret ptr %.tr
}